target datalayout = "e-m:e-p270:32:32-p271:32:32-p272:64:64-i64:64-i128:128-f80:128-n8:16:32:64-S128"
target triple = "x86_64-pc-linux-gnu"

%struct._lv_anim_t = type { ptr, ptr, ptr, ptr, ptr, ptr, ptr, ptr, ptr, i32, i32, i32, i32, i32, i32, i32, i32, i32, %union._lv_anim_path_para_t, i32, i8 }
%union._lv_anim_path_para_t = type { %struct.lv_anim_bezier3_para_t }
%struct.lv_anim_bezier3_para_t = type { i16, i16, i16, i16 }

@tv = internal global ptr null, align 8

; Function Attrs: nounwind uwtable
define internal void @slideshow_anim_completed_cb(ptr noundef %0) #0 {
  %2 = alloca ptr, align 8
  %3 = alloca ptr, align 8
  %4 = alloca i32, align 4
  %5 = alloca ptr, align 8
  %6 = alloca i32, align 4
  %7 = alloca i32, align 4
  %8 = alloca %struct._lv_anim_t, align 8
  store ptr %0, ptr %2, align 8, !tbaa !7
  call void @llvm.lifetime.start.p0(i64 8, ptr %3) #5
  %9 = load ptr, ptr @tv, align 8, !tbaa !7
  %10 = call ptr @lv_tabview_get_content(ptr noundef %9)
  store ptr %10, ptr %3, align 8, !tbaa !7
  call void @llvm.lifetime.start.p0(i64 4, ptr %4) #5
  %11 = load ptr, ptr @tv, align 8, !tbaa !7
  %12 = call i32 @lv_tabview_get_tab_active(ptr noundef %11)
  store i32 %12, ptr %4, align 4, !tbaa !3
  %13 = load i32, ptr %4, align 4, !tbaa !3
  %14 = add i32 %13, 1
  store i32 %14, ptr %4, align 4, !tbaa !3
  %15 = load i32, ptr %4, align 4, !tbaa !3
  %16 = icmp ugt i32 %15, 2
  br i1 %16, label %17, label %18

17:                                               ; preds = %1
  store i32 0, ptr %4, align 4, !tbaa !3
  br label %18

18:                                               ; preds = %17, %1
  %19 = load ptr, ptr @tv, align 8, !tbaa !7
  %20 = load i32, ptr %4, align 4, !tbaa !3
  call void @lv_tabview_set_active(ptr noundef %19, i32 noundef %20, i32 noundef 1)
  call void @llvm.lifetime.start.p0(i64 8, ptr %5) #5
  %21 = load ptr, ptr %3, align 8, !tbaa !7
  %22 = load i32, ptr %4, align 4, !tbaa !3
  %23 = call ptr @lv_obj_get_child(ptr noundef %21, i32 noundef %22)
  store ptr %23, ptr %5, align 8, !tbaa !7
  %24 = load ptr, ptr %5, align 8, !tbaa !7
  call void @lv_obj_scroll_to_y(ptr noundef %24, i32 noundef 0, i32 noundef 0)
  %25 = load ptr, ptr @tv, align 8, !tbaa !7
  call void @lv_obj_update_layout(ptr noundef %25)
  call void @llvm.lifetime.start.p0(i64 4, ptr %6) #5
  %26 = load ptr, ptr %5, align 8, !tbaa !7
  %27 = call i32 @lv_obj_get_scroll_bottom(ptr noundef %26)
  store i32 %27, ptr %6, align 4, !tbaa !3
  call void @llvm.lifetime.start.p0(i64 4, ptr %7) #5
  %28 = call i32 @lv_display_get_dpi(ptr noundef null)
  %29 = call i32 @lv_anim_speed(i32 noundef %28)
  store i32 %29, ptr %7, align 4, !tbaa !3
  call void @llvm.lifetime.start.p0(i64 128, ptr %8) #5
  call void @lv_anim_init(ptr noundef %8)
  call void @lv_anim_set_exec_cb(ptr noundef %8, ptr noundef @scroll_anim_y_cb)
  %30 = load i32, ptr %7, align 4, !tbaa !3
  call void @lv_anim_set_duration(ptr noundef %8, i32 noundef %30)
  %31 = load i32, ptr %7, align 4, !tbaa !3
  call void @lv_anim_set_playback_duration(ptr noundef %8, i32 noundef %31)
  %32 = load i32, ptr %6, align 4, !tbaa !3
  call void @lv_anim_set_values(ptr noundef %8, i32 noundef 0, i32 noundef %32)
  %33 = load ptr, ptr %5, align 8, !tbaa !7
  call void @lv_anim_set_var(ptr noundef %8, ptr noundef %33)
  call void @lv_anim_set_completed_cb(ptr noundef %8, ptr noundef @slideshow_anim_completed_cb)
  %34 = call ptr @lv_anim_start(ptr noundef %8)
  call void @llvm.lifetime.end.p0(i64 128, ptr %8) #5
  call void @llvm.lifetime.end.p0(i64 4, ptr %7) #5
  call void @llvm.lifetime.end.p0(i64 4, ptr %6) #5
  call void @llvm.lifetime.end.p0(i64 8, ptr %5) #5
  call void @llvm.lifetime.end.p0(i64 4, ptr %4) #5
  call void @llvm.lifetime.end.p0(i64 8, ptr %3) #5
  ret void
}