; Function Attrs: nounwind uwtable
define internal void @slideshow_anim_completed_cb(ptr nocapture readnone %0) #0 {
  %2 = alloca %struct._lv_anim_t, align 8
  %3 = load ptr, ptr @tv, align 8, !tbaa !7
  %4 = tail call ptr @lv_tabview_get_content(ptr noundef %3) #5
  %5 = load ptr, ptr @tv, align 8, !tbaa !7
  %6 = tail call i32 @lv_tabview_get_tab_active(ptr noundef %5) #5
  %7 = add i32 %6, 1
  %8 = icmp ugt i32 %7, 2
  %spec.store.select = select i1 %8, i32 0, i32 %7
  %9 = load ptr, ptr @tv, align 8, !tbaa !7
  tail call void @lv_tabview_set_active(ptr noundef %9, i32 noundef %spec.store.select, i32 noundef 1) #5
  %10 = tail call ptr @lv_obj_get_child(ptr noundef %4, i32 noundef %spec.store.select) #5
  tail call void @lv_obj_scroll_to_y(ptr noundef %10, i32 noundef 0, i32 noundef 0) #5
  %11 = load ptr, ptr @tv, align 8, !tbaa !7
  tail call void @lv_obj_update_layout(ptr noundef %11) #5
  %12 = tail call i32 @lv_obj_get_scroll_bottom(ptr noundef %10) #5
  %13 = tail call i32 @lv_display_get_dpi(ptr noundef null) #5
  %14 = tail call i32 @lv_anim_speed(i32 noundef %13) #5
  call void @llvm.lifetime.start.p0(i64 128, ptr nonnull %2) #5
  call void @lv_anim_init(ptr noundef nonnull %2) #5
  call void @lv_anim_set_exec_cb(ptr noundef nonnull %2, ptr noundef nonnull @scroll_anim_y_cb) #5
  call void @lv_anim_set_duration(ptr noundef nonnull %2, i32 noundef %14) #5
  call void @lv_anim_set_playback_duration(ptr noundef nonnull %2, i32 noundef %14) #5
  call void @lv_anim_set_values(ptr noundef nonnull %2, i32 noundef 0, i32 noundef %12) #5
  call void @lv_anim_set_var(ptr noundef nonnull %2, ptr noundef %10) #5
  call void @lv_anim_set_completed_cb(ptr noundef nonnull %2, ptr noundef nonnull @slideshow_anim_completed_cb) #5
  %15 = call ptr @lv_anim_start(ptr noundef nonnull %2) #5
  call void @llvm.lifetime.end.p0(i64 128, ptr nonnull %2) #5
  ret void
}